target datalayout = "e-m:e-p270:32:32-p271:32:32-p272:64:64-i64:64-i128:128-f80:128-n8:16:32:64-S128"
target triple = "x86_64-pc-linux-gnu"

%struct.AVRational = type { i32, i32 }
%struct.ID3v2EncContext = type { i32, i64, i32 }
%struct.AVFormatContext = type { ptr, ptr, ptr, ptr, ptr, i32, i32, ptr, i32, ptr, i32, ptr, ptr, i64, i64, i64, i32, i32, i32, i64, i64, ptr, i32, i32, ptr, i32, i32, i32, i32, ptr, i64, i32, i32, %struct.AVIOInterruptCB, i32, i32, i32, i32, i64, i32, i32, i32, i32, i32, i32, i32, i32, i32, i32, i32, i32, i64, i32, i32, i32, i32, i32, ptr, ptr, ptr, ptr, i32, ptr, ptr, ptr, ptr, i32, ptr, ptr, i64, ptr, ptr, ptr, i64 }
%struct.AVIOInterruptCB = type { ptr, ptr }
%struct.AVChapter = type { i64, %struct.AVRational, i64, i64, ptr }

@.str.11 = private unnamed_addr constant [4 x i8] c"toc\00", align 1
@.str.12 = private unnamed_addr constant [5 x i8] c"ch%d\00", align 1
@__const.write_chapter.time_base = private unnamed_addr constant %struct.AVRational { i32 1, i32 1000 }, align 4

; Function Attrs: nounwind uwtable
define internal i32 @write_chapter(ptr noundef %0, ptr noundef %1, i32 noundef %2, i32 noundef %3) #0 {
  %5 = alloca i32, align 4
  %6 = alloca ptr, align 8
  %7 = alloca ptr, align 8
  %8 = alloca i32, align 4
  %9 = alloca i32, align 4
  %10 = alloca %struct.AVRational, align 4
  %11 = alloca ptr, align 8
  %12 = alloca ptr, align 8
  %13 = alloca ptr, align 8
  %14 = alloca [123 x i8], align 16
  %15 = alloca i32, align 4
  %16 = alloca i32, align 4
  %17 = alloca i32, align 4
  %18 = alloca i32, align 4
  %19 = alloca i32, align 4
  store ptr %0, ptr %6, align 8, !tbaa !20
  store ptr %1, ptr %7, align 8, !tbaa !4
  store i32 %2, ptr %8, align 4, !tbaa !11
  store i32 %3, ptr %9, align 4, !tbaa !11
  call void @llvm.lifetime.start.p0(i64 8, ptr %10) #11
  call void @llvm.memcpy.p0.p0.i64(ptr align 4 %10, ptr align 4 @__const.write_chapter.time_base, i64 8, i1 false)
  call void @llvm.lifetime.start.p0(i64 8, ptr %11) #11
  %20 = load ptr, ptr %6, align 8, !tbaa !20
  %21 = getelementptr inbounds nuw %struct.AVFormatContext, ptr %20, i32 0, i32 11
  %22 = load ptr, ptr %21, align 8, !tbaa !49
  %23 = load i32, ptr %8, align 4, !tbaa !11
  %24 = sext i32 %23 to i64
  %25 = getelementptr inbounds ptr, ptr %22, i64 %24
  %26 = load ptr, ptr %25, align 8, !tbaa !50
  store ptr %26, ptr %11, align 8, !tbaa !50
  call void @llvm.lifetime.start.p0(i64 8, ptr %12) #11
  call void @llvm.lifetime.start.p0(i64 8, ptr %13) #11
  call void @llvm.lifetime.start.p0(i64 123, ptr %14) #11
  call void @llvm.lifetime.start.p0(i64 4, ptr %15) #11
  call void @llvm.lifetime.start.p0(i64 4, ptr %16) #11
  call void @llvm.lifetime.start.p0(i64 4, ptr %17) #11
  call void @llvm.lifetime.start.p0(i64 4, ptr %18) #11
  %27 = call i32 @avio_open_dyn_buf(ptr noundef %13)
  store i32 %27, ptr %18, align 4, !tbaa !11
  %28 = icmp slt i32 %27, 0
  br i1 %28, label %29, label %31

29:                                               ; preds = %4
  %30 = load i32, ptr %18, align 4, !tbaa !11
  store i32 %30, ptr %5, align 4
  store i32 1, ptr %19, align 4
  br label %98

31:                                               ; preds = %4
  %32 = load ptr, ptr %11, align 8, !tbaa !50
  %33 = getelementptr inbounds nuw %struct.AVChapter, ptr %32, i32 0, i32 2
  %34 = load i64, ptr %33, align 8, !tbaa !52
  %35 = load ptr, ptr %11, align 8, !tbaa !50
  %36 = getelementptr inbounds nuw %struct.AVChapter, ptr %35, i32 0, i32 1
  %37 = load i64, ptr %36, align 8
  %38 = load i64, ptr %10, align 4
  %39 = call i64 @av_rescale_q(i64 noundef %34, i64 %37, i64 %38) #12
  %40 = trunc i64 %39 to i32
  store i32 %40, ptr %16, align 4, !tbaa !11
  %41 = load ptr, ptr %11, align 8, !tbaa !50
  %42 = getelementptr inbounds nuw %struct.AVChapter, ptr %41, i32 0, i32 3
  %43 = load i64, ptr %42, align 8, !tbaa !55
  %44 = load ptr, ptr %11, align 8, !tbaa !50
  %45 = getelementptr inbounds nuw %struct.AVChapter, ptr %44, i32 0, i32 1
  %46 = load i64, ptr %45, align 8
  %47 = load i64, ptr %10, align 4
  %48 = call i64 @av_rescale_q(i64 noundef %43, i64 %46, i64 %47) #12
  %49 = trunc i64 %48 to i32
  store i32 %49, ptr %17, align 4, !tbaa !11
  %50 = getelementptr inbounds [123 x i8], ptr %14, i64 0, i64 0
  %51 = load i32, ptr %8, align 4, !tbaa !11
  %52 = call i32 (ptr, i64, ptr, ...) @snprintf(ptr noundef %50, i64 noundef 122, ptr noundef @.str.12, i32 noundef %51) #11
  %53 = load ptr, ptr %13, align 8, !tbaa !9
  %54 = getelementptr inbounds [123 x i8], ptr %14, i64 0, i64 0
  %55 = call i32 @avio_put_str(ptr noundef %53, ptr noundef %54)
  %56 = load ptr, ptr %7, align 8, !tbaa !4
  %57 = getelementptr inbounds nuw %struct.ID3v2EncContext, ptr %56, i32 0, i32 2
  %58 = load i32, ptr %57, align 8, !tbaa !43
  %59 = add nsw i32 %58, %55
  store i32 %59, ptr %57, align 8, !tbaa !43
  %60 = load ptr, ptr %13, align 8, !tbaa !9
  %61 = load i32, ptr %16, align 4, !tbaa !11
  call void @avio_wb32(ptr noundef %60, i32 noundef %61)
  %62 = load ptr, ptr %13, align 8, !tbaa !9
  %63 = load i32, ptr %17, align 4, !tbaa !11
  call void @avio_wb32(ptr noundef %62, i32 noundef %63)
  %64 = load ptr, ptr %13, align 8, !tbaa !9
  call void @avio_wb32(ptr noundef %64, i32 noundef -1)
  %65 = load ptr, ptr %13, align 8, !tbaa !9
  call void @avio_wb32(ptr noundef %65, i32 noundef -1)
  %66 = load ptr, ptr %13, align 8, !tbaa !9
  %67 = load ptr, ptr %11, align 8, !tbaa !50
  %68 = getelementptr inbounds nuw %struct.AVChapter, ptr %67, i32 0, i32 4
  %69 = load ptr, ptr %7, align 8, !tbaa !4
  %70 = load i32, ptr %9, align 4, !tbaa !11
  %71 = call i32 @write_metadata(ptr noundef %66, ptr noundef %68, ptr noundef %69, i32 noundef %70)
  store i32 %71, ptr %18, align 4, !tbaa !11
  %72 = icmp slt i32 %71, 0
  br i1 %72, label %73, label %74

73:                                               ; preds = %31
  br label %96

74:                                               ; preds = %31
  %75 = load ptr, ptr %13, align 8, !tbaa !9
  %76 = call i32 @avio_get_dyn_buf(ptr noundef %75, ptr noundef %12)
  store i32 %76, ptr %15, align 4, !tbaa !11
  %77 = load ptr, ptr %7, align 8, !tbaa !4
  %78 = getelementptr inbounds nuw %struct.ID3v2EncContext, ptr %77, i32 0, i32 2
  %79 = load i32, ptr %78, align 8, !tbaa !43
  %80 = add nsw i32 %79, 26
  store i32 %80, ptr %78, align 8, !tbaa !43
  %81 = load ptr, ptr %6, align 8, !tbaa !20
  %82 = getelementptr inbounds nuw %struct.AVFormatContext, ptr %81, i32 0, i32 4
  %83 = load ptr, ptr %82, align 8, !tbaa !22
  call void @avio_wb32(ptr noundef %83, i32 noundef 1128808784)
  %84 = load ptr, ptr %6, align 8, !tbaa !20
  %85 = getelementptr inbounds nuw %struct.AVFormatContext, ptr %84, i32 0, i32 4
  %86 = load ptr, ptr %85, align 8, !tbaa !22
  %87 = load i32, ptr %15, align 4, !tbaa !11
  call void @avio_wb32(ptr noundef %86, i32 noundef %87)
  %88 = load ptr, ptr %6, align 8, !tbaa !20
  %89 = getelementptr inbounds nuw %struct.AVFormatContext, ptr %88, i32 0, i32 4
  %90 = load ptr, ptr %89, align 8, !tbaa !22
  call void @avio_wb16(ptr noundef %90, i32 noundef 0)
  %91 = load ptr, ptr %6, align 8, !tbaa !20
  %92 = getelementptr inbounds nuw %struct.AVFormatContext, ptr %91, i32 0, i32 4
  %93 = load ptr, ptr %92, align 8, !tbaa !22
  %94 = load ptr, ptr %12, align 8, !tbaa !13
  %95 = load i32, ptr %15, align 4, !tbaa !11
  call void @avio_write(ptr noundef %93, ptr noundef %94, i32 noundef %95)
  br label %96

96:                                               ; preds = %74, %73
  call void @ffio_free_dyn_buf(ptr noundef %13)
  %97 = load i32, ptr %18, align 4, !tbaa !11
  store i32 %97, ptr %5, align 4
  store i32 1, ptr %19, align 4
  br label %98

98:                                               ; preds = %96, %29
  call void @llvm.lifetime.end.p0(i64 4, ptr %18) #11
  call void @llvm.lifetime.end.p0(i64 4, ptr %17) #11
  call void @llvm.lifetime.end.p0(i64 4, ptr %16) #11
  call void @llvm.lifetime.end.p0(i64 4, ptr %15) #11
  call void @llvm.lifetime.end.p0(i64 123, ptr %14) #11
  call void @llvm.lifetime.end.p0(i64 8, ptr %13) #11
  call void @llvm.lifetime.end.p0(i64 8, ptr %12) #11
  call void @llvm.lifetime.end.p0(i64 8, ptr %11) #11
  call void @llvm.lifetime.end.p0(i64 8, ptr %10) #11
  %99 = load i32, ptr %5, align 4
  ret i32 %99
}

; Function Attrs: nounwind uwtable
define internal i32 @write_ctoc(ptr noundef %0, ptr noundef %1, i32 noundef %2) #0 {
  %4 = alloca i32, align 4
  %5 = alloca ptr, align 8
  %6 = alloca ptr, align 8
  %7 = alloca i32, align 4
  %8 = alloca ptr, align 8
  %9 = alloca ptr, align 8
  %10 = alloca [123 x i8], align 16
  %11 = alloca i32, align 4
  %12 = alloca i32, align 4
  %13 = alloca i32, align 4
  %14 = alloca i32, align 4
  store ptr %0, ptr %5, align 8, !tbaa !20
  store ptr %1, ptr %6, align 8, !tbaa !4
  store i32 %2, ptr %7, align 4, !tbaa !11
  call void @llvm.lifetime.start.p0(i64 8, ptr %8) #11
  call void @llvm.lifetime.start.p0(i64 8, ptr %9) #11
  call void @llvm.lifetime.start.p0(i64 123, ptr %10) #11
  call void @llvm.lifetime.start.p0(i64 4, ptr %11) #11
  call void @llvm.lifetime.start.p0(i64 4, ptr %12) #11
  %15 = load ptr, ptr %5, align 8, !tbaa !20
  %16 = getelementptr inbounds nuw %struct.AVFormatContext, ptr %15, i32 0, i32 10
  %17 = load i32, ptr %16, align 8, !tbaa !35
  %18 = icmp eq i32 %17, 0
  br i1 %18, label %19, label %20

19:                                               ; preds = %3
  store i32 0, ptr %4, align 4
  store i32 1, ptr %13, align 4
  br label %75

20:                                               ; preds = %3
  %21 = call i32 @avio_open_dyn_buf(ptr noundef %9)
  store i32 %21, ptr %12, align 4, !tbaa !11
  %22 = icmp slt i32 %21, 0
  br i1 %22, label %23, label %25

23:                                               ; preds = %20
  %24 = load i32, ptr %12, align 4, !tbaa !11
  store i32 %24, ptr %4, align 4
  store i32 1, ptr %13, align 4
  br label %75

25:                                               ; preds = %20
  %26 = load ptr, ptr %9, align 8, !tbaa !9
  %27 = call i32 @avio_put_str(ptr noundef %26, ptr noundef @.str.11)
  %28 = load ptr, ptr %9, align 8, !tbaa !9
  call void @avio_w8(ptr noundef %28, i32 noundef 3)
  %29 = load ptr, ptr %9, align 8, !tbaa !9
  %30 = load ptr, ptr %5, align 8, !tbaa !20
  %31 = getelementptr inbounds nuw %struct.AVFormatContext, ptr %30, i32 0, i32 10
  %32 = load i32, ptr %31, align 8, !tbaa !35
  call void @avio_w8(ptr noundef %29, i32 noundef %32)
  call void @llvm.lifetime.start.p0(i64 4, ptr %14) #11
  store i32 0, ptr %14, align 4, !tbaa !11
  br label %33

33:                                               ; preds = %47, %25
  %34 = load i32, ptr %14, align 4, !tbaa !11
  %35 = load ptr, ptr %5, align 8, !tbaa !20
  %36 = getelementptr inbounds nuw %struct.AVFormatContext, ptr %35, i32 0, i32 10
  %37 = load i32, ptr %36, align 8, !tbaa !35
  %38 = icmp ult i32 %34, %37
  br i1 %38, label %40, label %39

39:                                               ; preds = %33
  store i32 2, ptr %13, align 4
  call void @llvm.lifetime.end.p0(i64 4, ptr %14) #11
  br label %50

40:                                               ; preds = %33
  %41 = getelementptr inbounds [123 x i8], ptr %10, i64 0, i64 0
  %42 = load i32, ptr %14, align 4, !tbaa !11
  %43 = call i32 (ptr, i64, ptr, ...) @snprintf(ptr noundef %41, i64 noundef 122, ptr noundef @.str.12, i32 noundef %42) #11
  %44 = load ptr, ptr %9, align 8, !tbaa !9
  %45 = getelementptr inbounds [123 x i8], ptr %10, i64 0, i64 0
  %46 = call i32 @avio_put_str(ptr noundef %44, ptr noundef %45)
  br label %47

47:                                               ; preds = %40
  %48 = load i32, ptr %14, align 4, !tbaa !11
  %49 = add nsw i32 %48, 1
  store i32 %49, ptr %14, align 4, !tbaa !11
  br label %33, !llvm.loop !48

50:                                               ; preds = %39
  %51 = load ptr, ptr %9, align 8, !tbaa !9
  %52 = call i32 @avio_get_dyn_buf(ptr noundef %51, ptr noundef %8)
  store i32 %52, ptr %11, align 4, !tbaa !11
  %53 = load i32, ptr %11, align 4, !tbaa !11
  %54 = add nsw i32 %53, 10
  %55 = load ptr, ptr %6, align 8, !tbaa !4
  %56 = getelementptr inbounds nuw %struct.ID3v2EncContext, ptr %55, i32 0, i32 2
  %57 = load i32, ptr %56, align 8, !tbaa !43
  %58 = add nsw i32 %57, %54
  store i32 %58, ptr %56, align 8, !tbaa !43
  %59 = load ptr, ptr %5, align 8, !tbaa !20
  %60 = getelementptr inbounds nuw %struct.AVFormatContext, ptr %59, i32 0, i32 4
  %61 = load ptr, ptr %60, align 8, !tbaa !22
  call void @avio_wb32(ptr noundef %61, i32 noundef 1129598787)
  %62 = load ptr, ptr %5, align 8, !tbaa !20
  %63 = getelementptr inbounds nuw %struct.AVFormatContext, ptr %62, i32 0, i32 4
  %64 = load ptr, ptr %63, align 8, !tbaa !22
  %65 = load i32, ptr %11, align 4, !tbaa !11
  call void @avio_wb32(ptr noundef %64, i32 noundef %65)
  %66 = load ptr, ptr %5, align 8, !tbaa !20
  %67 = getelementptr inbounds nuw %struct.AVFormatContext, ptr %66, i32 0, i32 4
  %68 = load ptr, ptr %67, align 8, !tbaa !22
  call void @avio_wb16(ptr noundef %68, i32 noundef 0)
  %69 = load ptr, ptr %5, align 8, !tbaa !20
  %70 = getelementptr inbounds nuw %struct.AVFormatContext, ptr %69, i32 0, i32 4
  %71 = load ptr, ptr %70, align 8, !tbaa !22
  %72 = load ptr, ptr %8, align 8, !tbaa !13
  %73 = load i32, ptr %11, align 4, !tbaa !11
  call void @avio_write(ptr noundef %71, ptr noundef %72, i32 noundef %73)
  call void @ffio_free_dyn_buf(ptr noundef %9)
  %74 = load i32, ptr %12, align 4, !tbaa !11
  store i32 %74, ptr %4, align 4
  store i32 1, ptr %13, align 4
  br label %75

75:                                               ; preds = %50, %23, %19
  call void @llvm.lifetime.end.p0(i64 4, ptr %12) #11
  call void @llvm.lifetime.end.p0(i64 4, ptr %11) #11
  call void @llvm.lifetime.end.p0(i64 123, ptr %10) #11
  call void @llvm.lifetime.end.p0(i64 8, ptr %9) #11
  call void @llvm.lifetime.end.p0(i64 8, ptr %8) #11
  %76 = load i32, ptr %4, align 4
  ret i32 %76
}

; Function Attrs: nounwind uwtable
define i32 @ff_id3v2_write_metadata(ptr noundef %0, ptr noundef %1) #0 {
  %3 = alloca i32, align 4
  %4 = alloca ptr, align 8
  %5 = alloca ptr, align 8
  %6 = alloca i32, align 4
  %7 = alloca i32, align 4
  %8 = alloca i32, align 4
  %9 = alloca i32, align 4
  store ptr %0, ptr %4, align 8, !tbaa !20
  store ptr %1, ptr %5, align 8, !tbaa !4
  call void @llvm.lifetime.start.p0(i64 4, ptr %6) #11
  %10 = load ptr, ptr %5, align 8, !tbaa !4
  %11 = getelementptr inbounds nuw %struct.ID3v2EncContext, ptr %10, i32 0, i32 0
  %12 = load i32, ptr %11, align 8, !tbaa !15
  %13 = icmp eq i32 %12, 3
  %14 = select i1 %13, i32 1, i32 3
  store i32 %14, ptr %6, align 4, !tbaa !11
  call void @llvm.lifetime.start.p0(i64 4, ptr %7) #11
  call void @llvm.lifetime.start.p0(i64 4, ptr %8) #11
  %15 = load ptr, ptr %4, align 8, !tbaa !20
  %16 = call i32 @ff_standardize_creation_time(ptr noundef %15)
  %17 = load ptr, ptr %4, align 8, !tbaa !20
  %18 = getelementptr inbounds nuw %struct.AVFormatContext, ptr %17, i32 0, i32 4
  %19 = load ptr, ptr %18, align 8, !tbaa !22
  %20 = load ptr, ptr %4, align 8, !tbaa !20
  %21 = getelementptr inbounds nuw %struct.AVFormatContext, ptr %20, i32 0, i32 29
  %22 = load ptr, ptr %5, align 8, !tbaa !4
  %23 = load i32, ptr %6, align 4, !tbaa !11
  %24 = call i32 @write_metadata(ptr noundef %19, ptr noundef %21, ptr noundef %22, i32 noundef %23)
  store i32 %24, ptr %8, align 4, !tbaa !11
  %25 = icmp slt i32 %24, 0
  br i1 %25, label %26, label %28

26:                                               ; preds = %2
  %27 = load i32, ptr %8, align 4, !tbaa !11
  store i32 %27, ptr %3, align 4
  store i32 1, ptr %9, align 4
  br label %57

28:                                               ; preds = %2
  %29 = load ptr, ptr %4, align 8, !tbaa !20
  %30 = load ptr, ptr %5, align 8, !tbaa !4
  %31 = load i32, ptr %6, align 4, !tbaa !11
  %32 = call i32 @write_ctoc(ptr noundef %29, ptr noundef %30, i32 noundef %31)
  store i32 %32, ptr %8, align 4, !tbaa !11
  %33 = icmp slt i32 %32, 0
  br i1 %33, label %34, label %36

34:                                               ; preds = %28
  %35 = load i32, ptr %8, align 4, !tbaa !11
  store i32 %35, ptr %3, align 4
  store i32 1, ptr %9, align 4
  br label %57

36:                                               ; preds = %28
  store i32 0, ptr %7, align 4, !tbaa !11
  br label %37

37:                                               ; preds = %53, %36
  %38 = load i32, ptr %7, align 4, !tbaa !11
  %39 = load ptr, ptr %4, align 8, !tbaa !20
  %40 = getelementptr inbounds nuw %struct.AVFormatContext, ptr %39, i32 0, i32 10
  %41 = load i32, ptr %40, align 8, !tbaa !35
  %42 = icmp ult i32 %38, %41
  br i1 %42, label %43, label %56

43:                                               ; preds = %37
  %44 = load ptr, ptr %4, align 8, !tbaa !20
  %45 = load ptr, ptr %5, align 8, !tbaa !4
  %46 = load i32, ptr %7, align 4, !tbaa !11
  %47 = load i32, ptr %6, align 4, !tbaa !11
  %48 = call i32 @write_chapter(ptr noundef %44, ptr noundef %45, i32 noundef %46, i32 noundef %47)
  store i32 %48, ptr %8, align 4, !tbaa !11
  %49 = icmp slt i32 %48, 0
  br i1 %49, label %50, label %52

50:                                               ; preds = %43
  %51 = load i32, ptr %8, align 4, !tbaa !11
  store i32 %51, ptr %3, align 4
  store i32 1, ptr %9, align 4
  br label %57

52:                                               ; preds = %43
  br label %53

53:                                               ; preds = %52
  %54 = load i32, ptr %7, align 4, !tbaa !11
  %55 = add nsw i32 %54, 1
  store i32 %55, ptr %7, align 4, !tbaa !11
  br label %37, !llvm.loop !36

56:                                               ; preds = %37
  store i32 0, ptr %3, align 4
  store i32 1, ptr %9, align 4
  br label %57

57:                                               ; preds = %56, %50, %34, %26
  call void @llvm.lifetime.end.p0(i64 4, ptr %8) #11
  call void @llvm.lifetime.end.p0(i64 4, ptr %7) #11
  call void @llvm.lifetime.end.p0(i64 4, ptr %6) #11
  %58 = load i32, ptr %3, align 4
  ret i32 %58
}