; Function Attrs: nounwind uwtable
define range(i32 -2147483648, 1) i32 @ff_id3v2_write_metadata(ptr noundef %0, ptr noundef captures(none) %1) local_unnamed_addr #0 {
  %3 = alloca ptr, align 8
  %4 = alloca ptr, align 8
  %5 = alloca [123 x i8], align 16
  %6 = alloca ptr, align 8
  %7 = alloca ptr, align 8
  %8 = alloca [123 x i8], align 16
  %9 = load i32, ptr %1, align 8, !tbaa !4
  %10 = icmp eq i32 %9, 3
  %11 = select i1 %10, i32 1, i32 3
  %12 = tail call i32 @ff_standardize_creation_time(ptr noundef %0) #9
  %13 = getelementptr inbounds nuw i8, ptr %0, i64 32
  %14 = load ptr, ptr %13, align 8, !tbaa !12
  %15 = getelementptr inbounds nuw i8, ptr %0, i64 192
  %16 = tail call fastcc i32 @write_metadata(ptr noundef %14, ptr noundef nonnull %15, ptr noundef nonnull %1, i32 noundef %11)
  %17 = icmp slt i32 %16, 0
  br i1 %17, label %.loopexit, label %18

18:                                               ; preds = %2
  call void @llvm.lifetime.start.p0(i64 8, ptr nonnull %6) #9
  call void @llvm.lifetime.start.p0(i64 8, ptr nonnull %7) #9
  call void @llvm.lifetime.start.p0(i64 123, ptr nonnull %8) #9
  %19 = getelementptr inbounds nuw i8, ptr %0, i64 72
  %20 = load i32, ptr %19, align 8, !tbaa !28
  %21 = icmp eq i32 %20, 0
  br i1 %21, label %write_ctoc.exit.thread34, label %22

write_ctoc.exit.thread34:                         ; preds = %18
  call void @llvm.lifetime.end.p0(i64 123, ptr nonnull %8) #9
  call void @llvm.lifetime.end.p0(i64 8, ptr nonnull %7) #9
  call void @llvm.lifetime.end.p0(i64 8, ptr nonnull %6) #9
  br label %.loopexit

22:                                               ; preds = %18
  %23 = call i32 @avio_open_dyn_buf(ptr noundef nonnull %7) #9
  %24 = icmp slt i32 %23, 0
  br i1 %24, label %write_ctoc.exit.thread, label %25

write_ctoc.exit.thread:                           ; preds = %22
  call void @llvm.lifetime.end.p0(i64 123, ptr nonnull %8) #9
  call void @llvm.lifetime.end.p0(i64 8, ptr nonnull %7) #9
  call void @llvm.lifetime.end.p0(i64 8, ptr nonnull %6) #9
  br label %.loopexit

25:                                               ; preds = %22
  %26 = load ptr, ptr %7, align 8, !tbaa !29
  %27 = call i32 @avio_put_str(ptr noundef %26, ptr noundef nonnull @.str.11) #9
  %28 = load ptr, ptr %7, align 8, !tbaa !29
  call void @avio_w8(ptr noundef %28, i32 noundef 3) #9
  %29 = load ptr, ptr %7, align 8, !tbaa !29
  %30 = load i32, ptr %19, align 8, !tbaa !28
  call void @avio_w8(ptr noundef %29, i32 noundef %30) #9
  %31 = load i32, ptr %19, align 8, !tbaa !28
  %.not.i = icmp eq i32 %31, 0
  br i1 %.not.i, label %write_ctoc.exit, label %.lr.ph.i

.lr.ph.i:                                         ; preds = %25, %.lr.ph.i
  %.018.i = phi i32 [ %35, %.lr.ph.i ], [ 0, %25 ]
  %32 = call i32 (ptr, i64, ptr, ...) @snprintf(ptr noundef nonnull dereferenceable(1) %8, i64 noundef 122, ptr noundef nonnull @.str.12, i32 noundef %.018.i) #9
  %33 = load ptr, ptr %7, align 8, !tbaa !29
  %34 = call i32 @avio_put_str(ptr noundef %33, ptr noundef nonnull %8) #9
  %35 = add nuw nsw i32 %.018.i, 1
  %36 = load i32, ptr %19, align 8, !tbaa !28
  %37 = icmp ult i32 %35, %36
  br i1 %37, label %.lr.ph.i, label %write_ctoc.exit, !llvm.loop !30

write_ctoc.exit:                                  ; preds = %.lr.ph.i, %25
  %38 = load ptr, ptr %7, align 8, !tbaa !29
  %39 = call i32 @avio_get_dyn_buf(ptr noundef %38, ptr noundef nonnull %6) #9
  %40 = add nsw i32 %39, 10
  %41 = getelementptr inbounds nuw i8, ptr %1, i64 16
  %42 = load i32, ptr %41, align 8, !tbaa !32
  %43 = add nsw i32 %40, %42
  store i32 %43, ptr %41, align 8, !tbaa !32
  %44 = load ptr, ptr %13, align 8, !tbaa !12
  call void @avio_wb32(ptr noundef %44, i32 noundef 1129598787) #9
  %45 = load ptr, ptr %13, align 8, !tbaa !12
  call void @avio_wb32(ptr noundef %45, i32 noundef %39) #9
  %46 = load ptr, ptr %13, align 8, !tbaa !12
  call void @avio_wb16(ptr noundef %46, i32 noundef 0) #9
  %47 = load ptr, ptr %13, align 8, !tbaa !12
  %48 = load ptr, ptr %6, align 8, !tbaa !33
  call void @avio_write(ptr noundef %47, ptr noundef %48, i32 noundef %39) #9
  call void @ffio_free_dyn_buf(ptr noundef nonnull %7) #9
  %.pre = load i32, ptr %19, align 8, !tbaa !28
  %49 = icmp eq i32 %.pre, 0
  call void @llvm.lifetime.end.p0(i64 123, ptr nonnull %8) #9
  call void @llvm.lifetime.end.p0(i64 8, ptr nonnull %7) #9
  call void @llvm.lifetime.end.p0(i64 8, ptr nonnull %6) #9
  br i1 %49, label %.loopexit, label %.lr.ph

.lr.ph:                                           ; preds = %write_ctoc.exit
  %50 = getelementptr inbounds nuw i8, ptr %0, i64 80
  %51 = getelementptr inbounds nuw i8, ptr %1, i64 16
  br label %52

52:                                               ; preds = %.lr.ph, %83
  %indvars.iv = phi i64 [ 0, %.lr.ph ], [ %indvars.iv.next, %83 ]
  %53 = load ptr, ptr %50, align 8, !tbaa !34
  %54 = getelementptr inbounds nuw ptr, ptr %53, i64 %indvars.iv
  %55 = load ptr, ptr %54, align 8, !tbaa !35
  call void @llvm.lifetime.start.p0(i64 8, ptr nonnull %3) #9
  call void @llvm.lifetime.start.p0(i64 8, ptr nonnull %4) #9
  call void @llvm.lifetime.start.p0(i64 123, ptr nonnull %5) #9
  %56 = call i32 @avio_open_dyn_buf(ptr noundef nonnull %4) #9
  %57 = icmp slt i32 %56, 0
  br i1 %57, label %write_chapter.exit.thread, label %58

write_chapter.exit.thread:                        ; preds = %52
  call void @llvm.lifetime.end.p0(i64 123, ptr nonnull %5) #9
  call void @llvm.lifetime.end.p0(i64 8, ptr nonnull %4) #9
  call void @llvm.lifetime.end.p0(i64 8, ptr nonnull %3) #9
  br label %.loopexit

58:                                               ; preds = %52
  %59 = getelementptr inbounds nuw i8, ptr %55, i64 16
  %60 = load i64, ptr %59, align 8, !tbaa !37
  %61 = getelementptr inbounds nuw i8, ptr %55, i64 8
  %62 = load i64, ptr %61, align 8
  %63 = call i64 @av_rescale_q(i64 noundef %60, i64 %62, i64 4294967296001) #10
  %64 = trunc i64 %63 to i32
  %65 = getelementptr inbounds nuw i8, ptr %55, i64 24
  %66 = load i64, ptr %65, align 8, !tbaa !40
  %67 = call i64 @av_rescale_q(i64 noundef %66, i64 %62, i64 4294967296001) #10
  %68 = trunc i64 %67 to i32
  %69 = trunc nuw nsw i64 %indvars.iv to i32
  %70 = call i32 (ptr, i64, ptr, ...) @snprintf(ptr noundef nonnull dereferenceable(1) %5, i64 noundef 122, ptr noundef nonnull @.str.12, i32 noundef %69) #9
  %71 = load ptr, ptr %4, align 8, !tbaa !29
  %72 = call i32 @avio_put_str(ptr noundef %71, ptr noundef nonnull %5) #9
  %73 = load i32, ptr %51, align 8, !tbaa !32
  %74 = add nsw i32 %73, %72
  store i32 %74, ptr %51, align 8, !tbaa !32
  %75 = load ptr, ptr %4, align 8, !tbaa !29
  call void @avio_wb32(ptr noundef %75, i32 noundef %64) #9
  %76 = load ptr, ptr %4, align 8, !tbaa !29
  call void @avio_wb32(ptr noundef %76, i32 noundef %68) #9
  %77 = load ptr, ptr %4, align 8, !tbaa !29
  call void @avio_wb32(ptr noundef %77, i32 noundef -1) #9
  %78 = load ptr, ptr %4, align 8, !tbaa !29
  call void @avio_wb32(ptr noundef %78, i32 noundef -1) #9
  %79 = load ptr, ptr %4, align 8, !tbaa !29
  %80 = getelementptr inbounds nuw i8, ptr %55, i64 32
  %81 = call fastcc i32 @write_metadata(ptr noundef %79, ptr noundef nonnull %80, ptr noundef nonnull %1, i32 noundef range(i32 1, 4) %11)
  %82 = icmp slt i32 %81, 0
  br i1 %82, label %write_chapter.exit.thread25, label %83

write_chapter.exit.thread25:                      ; preds = %58
  call void @ffio_free_dyn_buf(ptr noundef nonnull %4) #9
  call void @llvm.lifetime.end.p0(i64 123, ptr nonnull %5) #9
  call void @llvm.lifetime.end.p0(i64 8, ptr nonnull %4) #9
  call void @llvm.lifetime.end.p0(i64 8, ptr nonnull %3) #9
  br label %.loopexit

83:                                               ; preds = %58
  %84 = load ptr, ptr %4, align 8, !tbaa !29
  %85 = call i32 @avio_get_dyn_buf(ptr noundef %84, ptr noundef nonnull %3) #9
  %86 = load i32, ptr %51, align 8, !tbaa !32
  %87 = add nsw i32 %86, 26
  store i32 %87, ptr %51, align 8, !tbaa !32
  %88 = load ptr, ptr %13, align 8, !tbaa !12
  call void @avio_wb32(ptr noundef %88, i32 noundef 1128808784) #9
  %89 = load ptr, ptr %13, align 8, !tbaa !12
  call void @avio_wb32(ptr noundef %89, i32 noundef %85) #9
  %90 = load ptr, ptr %13, align 8, !tbaa !12
  call void @avio_wb16(ptr noundef %90, i32 noundef 0) #9
  %91 = load ptr, ptr %13, align 8, !tbaa !12
  %92 = load ptr, ptr %3, align 8, !tbaa !33
  call void @avio_write(ptr noundef %91, ptr noundef %92, i32 noundef %85) #9
  call void @ffio_free_dyn_buf(ptr noundef nonnull %4) #9
  call void @llvm.lifetime.end.p0(i64 123, ptr nonnull %5) #9
  call void @llvm.lifetime.end.p0(i64 8, ptr nonnull %4) #9
  call void @llvm.lifetime.end.p0(i64 8, ptr nonnull %3) #9
  %indvars.iv.next = add nuw nsw i64 %indvars.iv, 1
  %93 = load i32, ptr %19, align 8, !tbaa !28
  %94 = zext i32 %93 to i64
  %95 = icmp samesign ult i64 %indvars.iv.next, %94
  br i1 %95, label %52, label %.loopexit, !llvm.loop !41

.loopexit:                                        ; preds = %83, %write_ctoc.exit.thread34, %write_ctoc.exit, %write_chapter.exit.thread25, %write_chapter.exit.thread, %write_ctoc.exit.thread, %2
  %.019 = phi i32 [ %16, %2 ], [ %23, %write_ctoc.exit.thread ], [ %56, %write_chapter.exit.thread ], [ %81, %write_chapter.exit.thread25 ], [ 0, %write_ctoc.exit ], [ 0, %write_ctoc.exit.thread34 ], [ 0, %83 ]
  ret i32 %.019
}